; Function Attrs: mustprogress uwtable
define dso_local noundef ptr @stbi_load(ptr noundef readonly captures(none) %0, ptr noundef captures(none) %1, ptr noundef captures(none) %2, ptr noundef %3, i32 noundef %4) local_unnamed_addr #5 {
  %6 = alloca %struct.stbi__context, align 8
  %7 = tail call noalias noundef ptr @fopen(ptr noundef readonly %0, ptr noundef nonnull @.str)
  %.not = icmp eq ptr %7, null
  br i1 %.not, label %8, label %10

8:                                                ; preds = %5
  %9 = tail call align 8 ptr @llvm.threadlocal.address.p0(ptr align 8 @_ZL22stbi__g_failure_reason)
  store ptr @.str.1, ptr %9, align 8, !tbaa !4
  br label %46

10:                                               ; preds = %5
  call void @llvm.lifetime.start.p0(i64 224, ptr nonnull %6) #40
  %11 = getelementptr inbounds nuw i8, ptr %6, i64 16
  call void @llvm.memcpy.p0.p0.i64(ptr noundef nonnull align 8 dereferenceable(24) %11, ptr noundef nonnull align 8 dereferenceable(24) @_ZL21stbi__stdio_callbacks, i64 24, i1 false), !tbaa.struct !11
  %12 = getelementptr inbounds nuw i8, ptr %6, i64 40
  store ptr %7, ptr %12, align 8, !tbaa !13
  %13 = getelementptr inbounds nuw i8, ptr %6, i64 52
  store i32 128, ptr %13, align 4, !tbaa !16
  %14 = getelementptr inbounds nuw i8, ptr %6, i64 48
  store i32 1, ptr %14, align 8, !tbaa !17
  %15 = getelementptr inbounds nuw i8, ptr %6, i64 184
  store i32 0, ptr %15, align 8, !tbaa !18
  %16 = getelementptr inbounds nuw i8, ptr %6, i64 56
  %17 = getelementptr inbounds nuw i8, ptr %6, i64 208
  store ptr %16, ptr %17, align 8, !tbaa !19
  %18 = getelementptr inbounds nuw i8, ptr %6, i64 192
  store ptr %16, ptr %18, align 8, !tbaa !20
  %19 = load ptr, ptr %11, align 8, !tbaa !21
  %20 = call noundef i32 %19(ptr noundef nonnull %7, ptr noundef nonnull %16, i32 noundef 128)
  %21 = load ptr, ptr %18, align 8, !tbaa !20
  %22 = load ptr, ptr %17, align 8, !tbaa !19
  %23 = ptrtoint ptr %21 to i64
  %24 = ptrtoint ptr %22 to i64
  %25 = sub i64 %23, %24
  %26 = trunc i64 %25 to i32
  %27 = load i32, ptr %15, align 8, !tbaa !18
  %28 = add nsw i32 %27, %26
  store i32 %28, ptr %15, align 8, !tbaa !18
  %29 = icmp eq i32 %20, 0
  br i1 %29, label %30, label %32

30:                                               ; preds = %10
  store i32 0, ptr %14, align 8, !tbaa !17
  %31 = getelementptr inbounds nuw i8, ptr %6, i64 57
  store i8 0, ptr %16, align 8, !tbaa !22
  br label %_ZL16stbi__start_fileP13stbi__contextP8_IO_FILE.exit.i

32:                                               ; preds = %10
  %33 = sext i32 %20 to i64
  %34 = getelementptr inbounds i8, ptr %16, i64 %33
  br label %_ZL16stbi__start_fileP13stbi__contextP8_IO_FILE.exit.i

_ZL16stbi__start_fileP13stbi__contextP8_IO_FILE.exit.i: ; preds = %32, %30
  %.sink.i.i.i.i = phi ptr [ %31, %30 ], [ %34, %32 ]
  store ptr %16, ptr %18, align 8, !tbaa !20
  %35 = getelementptr inbounds nuw i8, ptr %6, i64 200
  store ptr %.sink.i.i.i.i, ptr %35, align 8, !tbaa !23
  %36 = getelementptr inbounds nuw i8, ptr %6, i64 216
  store ptr %.sink.i.i.i.i, ptr %36, align 8, !tbaa !24
  %37 = call fastcc noundef ptr @_ZL31stbi__load_and_postprocess_8bitP13stbi__contextPiS1_S1_i(ptr noundef %6, ptr noundef %1, ptr noundef %2, ptr noundef %3, i32 noundef %4)
  %.not.i = icmp eq ptr %37, null
  br i1 %.not.i, label %stbi_load_from_file.exit, label %38

38:                                               ; preds = %_ZL16stbi__start_fileP13stbi__contextP8_IO_FILE.exit.i
  %39 = load ptr, ptr %35, align 8, !tbaa !23
  %40 = load ptr, ptr %18, align 8, !tbaa !20
  %41 = ptrtoint ptr %39 to i64
  %42 = ptrtoint ptr %40 to i64
  %.neg.i = sub i64 %42, %41
  %sext.i = shl i64 %.neg.i, 32
  %43 = ashr exact i64 %sext.i, 32
  %44 = call i32 @fseek(ptr noundef nonnull %7, i64 noundef %43, i32 noundef 1)
  br label %stbi_load_from_file.exit

stbi_load_from_file.exit:                         ; preds = %_ZL16stbi__start_fileP13stbi__contextP8_IO_FILE.exit.i, %38
  call void @llvm.lifetime.end.p0(i64 224, ptr nonnull %6) #40
  %45 = call i32 @fclose(ptr noundef nonnull %7)
  br label %46

46:                                               ; preds = %stbi_load_from_file.exit, %8
  %.0 = phi ptr [ %37, %stbi_load_from_file.exit ], [ null, %8 ]
  ret ptr %.0
}